; Function Attrs: mustprogress uwtable
define noundef i32 @_Z11search_einpN3gmx8ArrayRefIK9t_inpfileEEPKc(ptr %0, ptr %1, ptr noundef %2) local_unnamed_addr #0 {
  %4 = icmp eq ptr %0, %1
  br i1 %4, label %.loopexit, label %.preheader

.preheader:                                       ; preds = %3
  %5 = ptrtoint ptr %1 to i64
  %6 = ptrtoint ptr %0 to i64
  %7 = sub i64 %5, %6
  %.not9 = icmp sgt i64 %7, 0
  br i1 %.not9, label %.lr.ph.preheader, label %.loopexit

.lr.ph.preheader:                                 ; preds = %.preheader
  %8 = udiv exact i64 %7, 80
  %9 = tail call i64 @llvm.umax.i64(i64 %8, i64 1)
  br label %.lr.ph

.lr.ph:                                           ; preds = %.lr.ph.preheader, %16
  %.0610 = phi i64 [ %17, %16 ], [ 0, %.lr.ph.preheader ]
  %10 = getelementptr inbounds nuw %struct.t_inpfile, ptr %0, i64 %.0610, i32 5
  %11 = load ptr, ptr %10, align 8, !tbaa !15
  %12 = tail call noundef i32 @_Z18gmx_strcasecmp_minPKcS0_(ptr noundef %2, ptr noundef %11)
  %13 = icmp eq i32 %12, 0
  br i1 %13, label %14, label %16

14:                                               ; preds = %.lr.ph
  %15 = trunc i64 %.0610 to i32
  br label %.loopexit

16:                                               ; preds = %.lr.ph
  %17 = add nuw nsw i64 %.0610, 1
  %exitcond.not = icmp eq i64 %17, %9
  br i1 %exitcond.not, label %.loopexit, label %.lr.ph, !llvm.loop !40

.loopexit:                                        ; preds = %16, %.preheader, %14, %3
  %.07 = phi i32 [ -1, %3 ], [ %15, %14 ], [ -1, %.preheader ], [ -1, %16 ]
  ret i32 %.07
}